target datalayout = "e-m:e-p270:32:32-p271:32:32-p272:64:64-i64:64-i128:128-f80:128-n8:16:32:64-S128"
target triple = "x86_64-pc-linux-gnu"

%struct.FindAudioDeviceByCallbackData = type { ptr, ptr, ptr }

; Function Attrs: nounwind uwtable
define internal zeroext i1 @FindAudioDeviceByCallback(ptr noundef %0, ptr noundef %1, ptr noundef %2, ptr noundef %3) #0 {
  %5 = alloca i1, align 1
  %6 = alloca ptr, align 8
  %7 = alloca ptr, align 8
  %8 = alloca ptr, align 8
  %9 = alloca ptr, align 8
  %10 = alloca ptr, align 8
  %11 = alloca i32, align 4
  %12 = alloca i8, align 1
  %13 = alloca ptr, align 8
  %14 = alloca i32, align 4
  store ptr %0, ptr %6, align 8
  store ptr %1, ptr %7, align 8
  store ptr %2, ptr %8, align 8
  store ptr %3, ptr %9, align 8
  call void @llvm.lifetime.start.p0(i64 8, ptr %10) #6
  %15 = load ptr, ptr %6, align 8
  store ptr %15, ptr %10, align 8
  call void @llvm.lifetime.start.p0(i64 4, ptr %11) #6
  %16 = load ptr, ptr %8, align 8
  %17 = ptrtoint ptr %16 to i64
  %18 = trunc i64 %17 to i32
  store i32 %18, ptr %11, align 4
  call void @llvm.lifetime.start.p0(i64 1, ptr %12) #6
  %19 = load i32, ptr %11, align 4
  %20 = and i32 %19, 2
  %21 = icmp ne i32 %20, 0
  %22 = xor i1 %21, true
  %23 = xor i1 %22, true
  %24 = zext i1 %23 to i8
  store i8 %24, ptr %12, align 1
  %25 = load i8, ptr %12, align 1, !range !5, !noundef !6
  %26 = trunc i8 %25 to i1
  br i1 %26, label %27, label %48

27:                                               ; preds = %4
  call void @llvm.lifetime.start.p0(i64 8, ptr %13) #6
  %28 = load ptr, ptr %9, align 8
  store ptr %28, ptr %13, align 8
  %29 = load ptr, ptr %10, align 8
  %30 = getelementptr inbounds nuw %struct.FindAudioDeviceByCallbackData, ptr %29, i32 0, i32 0
  %31 = load ptr, ptr %30, align 8
  %32 = load ptr, ptr %13, align 8
  %33 = load ptr, ptr %10, align 8
  %34 = getelementptr inbounds nuw %struct.FindAudioDeviceByCallbackData, ptr %33, i32 0, i32 1
  %35 = load ptr, ptr %34, align 8
  %36 = call zeroext i1 %31(ptr noundef %32, ptr noundef %35)
  br i1 %36, label %37, label %44

37:                                               ; preds = %27
  %38 = load ptr, ptr %13, align 8
  %39 = load ptr, ptr %10, align 8
  %40 = getelementptr inbounds nuw %struct.FindAudioDeviceByCallbackData, ptr %39, i32 0, i32 2
  store ptr %38, ptr %40, align 8
  br label %41

41:                                               ; preds = %37
  br label %42

42:                                               ; preds = %41
  br label %43

43:                                               ; preds = %42
  store i1 false, ptr %5, align 1
  store i32 1, ptr %14, align 4
  br label %45

44:                                               ; preds = %27
  store i32 0, ptr %14, align 4
  br label %45

45:                                               ; preds = %44, %43
  call void @llvm.lifetime.end.p0(i64 8, ptr %13) #6
  %46 = load i32, ptr %14, align 4
  switch i32 %46, label %49 [
    i32 0, label %47
  ]

47:                                               ; preds = %45
  br label %48

48:                                               ; preds = %47, %4
  store i1 true, ptr %5, align 1
  store i32 1, ptr %14, align 4
  br label %49

49:                                               ; preds = %48, %45
  call void @llvm.lifetime.end.p0(i64 1, ptr %12) #6
  call void @llvm.lifetime.end.p0(i64 4, ptr %11) #6
  call void @llvm.lifetime.end.p0(i64 8, ptr %10) #6
  %50 = load i1, ptr %5, align 1
  ret i1 %50
}