; Function Attrs: nounwind uwtable
define internal noundef zeroext i1 @FindAudioDeviceByCallback(ptr noundef captures(none) %0, ptr readnone captures(none) %1, ptr noundef %2, ptr noundef %3) #0 {
  %5 = ptrtoint ptr %2 to i64
  %6 = and i64 %5, 2
  %.not = icmp eq i64 %6, 0
  br i1 %.not, label %.critedge, label %7

7:                                                ; preds = %4
  %8 = load ptr, ptr %0, align 8
  %9 = getelementptr inbounds nuw i8, ptr %0, i64 8
  %10 = load ptr, ptr %9, align 8
  %11 = tail call zeroext i1 %8(ptr noundef %3, ptr noundef %10) #14
  br i1 %11, label %12, label %.critedge

12:                                               ; preds = %7
  %13 = getelementptr inbounds nuw i8, ptr %0, i64 16
  store ptr %3, ptr %13, align 8
  br label %.critedge

.critedge:                                        ; preds = %4, %7, %12
  %.1 = phi i1 [ false, %12 ], [ true, %7 ], [ true, %4 ]
  ret i1 %.1
}